target datalayout = "e-m:e-p270:32:32-p271:32:32-p272:64:64-i64:64-i128:128-f80:128-n8:16:32:64-S128"
target triple = "x86_64-pc-linux-gnu"

@.str.7 = private unnamed_addr constant [12 x i8] c"    x = %g\0A\00", align 1
@.str.8 = private unnamed_addr constant [12 x i8] c"    y = %g\0A\00", align 1
@.str.9 = private unnamed_addr constant [12 x i8] c"    z = %g\0A\00", align 1
@.str.31 = private unnamed_addr constant [19 x i8] c"N_VGetArrayPointer\00", align 1
@.str.38 = private unnamed_addr constant [20 x i8] c"Computed solution:\0A\00", align 1
@.str.39 = private unnamed_addr constant [17 x i8] c"Solution error:\0A\00", align 1
@.str.40 = private unnamed_addr constant [13 x i8] c"    ex = %g\0A\00", align 1
@.str.41 = private unnamed_addr constant [13 x i8] c"    ey = %g\0A\00", align 1
@.str.42 = private unnamed_addr constant [13 x i8] c"    ez = %g\0A\00", align 1
@.str.43 = private unnamed_addr constant [6 x i8] c"FAIL\0A\00", align 1
@.str.44 = private unnamed_addr constant [6 x i8] c"PASS\0A\00", align 1
@stderr = external global ptr, align 8
@.str.63 = private unnamed_addr constant [39 x i8] c"\0AERROR: %s() failed -- returned NULL\0A\0A\00", align 1
@.str.64 = private unnamed_addr constant [37 x i8] c"\0AERROR: %s() failed -- returned %d\0A\0A\00", align 1
@.str.65 = private unnamed_addr constant [51 x i8] c"\0AERROR: check_retval failed -- Invalid opt value\0A\0A\00", align 1

; Function Attrs: nounwind uwtable
define internal i32 @check_retval(ptr noundef %0, ptr noundef %1, i32 noundef %2) #0 {
  %4 = alloca i32, align 4
  %5 = alloca ptr, align 8
  %6 = alloca ptr, align 8
  %7 = alloca i32, align 4
  %8 = alloca ptr, align 8
  %9 = alloca i32, align 4
  store ptr %0, ptr %5, align 8, !tbaa !11
  store ptr %1, ptr %6, align 8, !tbaa !32
  store i32 %2, ptr %7, align 4, !tbaa !4
  call void @llvm.lifetime.start.p0(i64 8, ptr %8) #8
  %10 = load i32, ptr %7, align 4, !tbaa !4
  %11 = icmp eq i32 %10, 0
  br i1 %11, label %12, label %20

12:                                               ; preds = %3
  %13 = load ptr, ptr %5, align 8, !tbaa !11
  %14 = icmp eq ptr %13, null
  br i1 %14, label %15, label %19

15:                                               ; preds = %12
  %16 = load ptr, ptr @stderr, align 8, !tbaa !14
  %17 = load ptr, ptr %6, align 8, !tbaa !32
  %18 = call i32 (ptr, ptr, ...) @fprintf(ptr noundef %16, ptr noundef @.str.63, ptr noundef %17) #8
  store i32 1, ptr %4, align 4
  store i32 1, ptr %9, align 4
  br label %38

19:                                               ; preds = %12
  store i32 0, ptr %4, align 4
  store i32 1, ptr %9, align 4
  br label %38

20:                                               ; preds = %3
  %21 = load i32, ptr %7, align 4, !tbaa !4
  %22 = icmp eq i32 %21, 1
  br i1 %22, label %23, label %35

23:                                               ; preds = %20
  %24 = load ptr, ptr %5, align 8, !tbaa !11
  store ptr %24, ptr %8, align 8, !tbaa !34
  %25 = load ptr, ptr %8, align 8, !tbaa !34
  %26 = load i32, ptr %25, align 4, !tbaa !4
  %27 = icmp ne i32 %26, 0
  br i1 %27, label %28, label %34

28:                                               ; preds = %23
  %29 = load ptr, ptr @stderr, align 8, !tbaa !14
  %30 = load ptr, ptr %6, align 8, !tbaa !32
  %31 = load ptr, ptr %8, align 8, !tbaa !34
  %32 = load i32, ptr %31, align 4, !tbaa !4
  %33 = call i32 (ptr, ptr, ...) @fprintf(ptr noundef %29, ptr noundef @.str.64, ptr noundef %30, i32 noundef %32) #8
  store i32 1, ptr %4, align 4
  store i32 1, ptr %9, align 4
  br label %38

34:                                               ; preds = %23
  store i32 0, ptr %4, align 4
  store i32 1, ptr %9, align 4
  br label %38

35:                                               ; preds = %20
  %36 = load ptr, ptr @stderr, align 8, !tbaa !14
  %37 = call i32 (ptr, ptr, ...) @fprintf(ptr noundef %36, ptr noundef @.str.65) #8
  store i32 1, ptr %4, align 4
  store i32 1, ptr %9, align 4
  br label %38

38:                                               ; preds = %35, %34, %28, %19, %15
  call void @llvm.lifetime.end.p0(i64 8, ptr %8) #8
  %39 = load i32, ptr %4, align 4
  ret i32 %39
}

; Function Attrs: nounwind uwtable
define internal i32 @check_ans(ptr noundef %0, double noundef %1) #0 {
  %3 = alloca i32, align 4
  %4 = alloca ptr, align 8
  %5 = alloca double, align 8
  %6 = alloca ptr, align 8
  %7 = alloca double, align 8
  %8 = alloca double, align 8
  %9 = alloca double, align 8
  %10 = alloca i32, align 4
  store ptr %0, ptr %4, align 8, !tbaa !12
  store double %1, ptr %5, align 8, !tbaa !30
  call void @llvm.lifetime.start.p0(i64 8, ptr %6) #8
  store ptr null, ptr %6, align 8, !tbaa !28
  call void @llvm.lifetime.start.p0(i64 8, ptr %7) #8
  call void @llvm.lifetime.start.p0(i64 8, ptr %8) #8
  call void @llvm.lifetime.start.p0(i64 8, ptr %9) #8
  %11 = load ptr, ptr %4, align 8, !tbaa !12
  %12 = call ptr @N_VGetArrayPointer(ptr noundef %11)
  store ptr %12, ptr %6, align 8, !tbaa !28
  %13 = load ptr, ptr %6, align 8, !tbaa !28
  %14 = call i32 @check_retval(ptr noundef %13, ptr noundef @.str.31, i32 noundef 0)
  %15 = icmp ne i32 %14, 0
  br i1 %15, label %16, label %17

16:                                               ; preds = %2
  store i32 1, ptr %3, align 4
  store i32 1, ptr %10, align 4
  br label %70

17:                                               ; preds = %2
  %18 = call i32 (ptr, ...) @printf(ptr noundef @.str.38)
  %19 = load ptr, ptr %6, align 8, !tbaa !28
  %20 = getelementptr inbounds double, ptr %19, i64 0
  %21 = load double, ptr %20, align 8, !tbaa !30
  %22 = call i32 (ptr, ...) @printf(ptr noundef @.str.7, double noundef %21)
  %23 = load ptr, ptr %6, align 8, !tbaa !28
  %24 = getelementptr inbounds double, ptr %23, i64 1
  %25 = load double, ptr %24, align 8, !tbaa !30
  %26 = call i32 (ptr, ...) @printf(ptr noundef @.str.8, double noundef %25)
  %27 = load ptr, ptr %6, align 8, !tbaa !28
  %28 = getelementptr inbounds double, ptr %27, i64 2
  %29 = load double, ptr %28, align 8, !tbaa !30
  %30 = call i32 (ptr, ...) @printf(ptr noundef @.str.9, double noundef %29)
  %31 = load ptr, ptr %6, align 8, !tbaa !28
  %32 = getelementptr inbounds double, ptr %31, i64 0
  %33 = load double, ptr %32, align 8, !tbaa !30
  %34 = fsub double %33, 5.000000e-01
  %35 = call double @llvm.fabs.f64(double %34)
  store double %35, ptr %7, align 8, !tbaa !30
  %36 = load ptr, ptr %6, align 8, !tbaa !28
  %37 = getelementptr inbounds double, ptr %36, i64 1
  %38 = load double, ptr %37, align 8, !tbaa !30
  %39 = fsub double %38, 1.000000e+00
  %40 = call double @llvm.fabs.f64(double %39)
  store double %40, ptr %8, align 8, !tbaa !30
  %41 = load ptr, ptr %6, align 8, !tbaa !28
  %42 = getelementptr inbounds double, ptr %41, i64 2
  %43 = load double, ptr %42, align 8, !tbaa !30
  %44 = fsub double %43, 0xBFE0C152382D7370
  %45 = call double @llvm.fabs.f64(double %44)
  store double %45, ptr %9, align 8, !tbaa !30
  %46 = call i32 (ptr, ...) @printf(ptr noundef @.str.39)
  %47 = load double, ptr %7, align 8, !tbaa !30
  %48 = call i32 (ptr, ...) @printf(ptr noundef @.str.40, double noundef %47)
  %49 = load double, ptr %8, align 8, !tbaa !30
  %50 = call i32 (ptr, ...) @printf(ptr noundef @.str.41, double noundef %49)
  %51 = load double, ptr %9, align 8, !tbaa !30
  %52 = call i32 (ptr, ...) @printf(ptr noundef @.str.42, double noundef %51)
  %53 = load double, ptr %5, align 8, !tbaa !30
  %54 = fmul double %53, 1.000000e+01
  store double %54, ptr %5, align 8, !tbaa !30
  %55 = load double, ptr %7, align 8, !tbaa !30
  %56 = load double, ptr %5, align 8, !tbaa !30
  %57 = fcmp ogt double %55, %56
  br i1 %57, label %66, label %58

58:                                               ; preds = %17
  %59 = load double, ptr %8, align 8, !tbaa !30
  %60 = load double, ptr %5, align 8, !tbaa !30
  %61 = fcmp ogt double %59, %60
  br i1 %61, label %66, label %62

62:                                               ; preds = %58
  %63 = load double, ptr %9, align 8, !tbaa !30
  %64 = load double, ptr %5, align 8, !tbaa !30
  %65 = fcmp ogt double %63, %64
  br i1 %65, label %66, label %68

66:                                               ; preds = %62, %58, %17
  %67 = call i32 (ptr, ...) @printf(ptr noundef @.str.43)
  store i32 1, ptr %3, align 4
  store i32 1, ptr %10, align 4
  br label %70

68:                                               ; preds = %62
  %69 = call i32 (ptr, ...) @printf(ptr noundef @.str.44)
  store i32 0, ptr %3, align 4
  store i32 1, ptr %10, align 4
  br label %70

70:                                               ; preds = %68, %66, %16
  call void @llvm.lifetime.end.p0(i64 8, ptr %9) #8
  call void @llvm.lifetime.end.p0(i64 8, ptr %8) #8
  call void @llvm.lifetime.end.p0(i64 8, ptr %7) #8
  call void @llvm.lifetime.end.p0(i64 8, ptr %6) #8
  %71 = load i32, ptr %3, align 4
  ret i32 %71
}