; Function Attrs: nounwind uwtable
define internal fastcc range(i32 0, 2) i32 @check_ans(ptr noundef %0, double noundef %1) unnamed_addr #0 {
  %3 = tail call ptr @N_VGetArrayPointer(ptr noundef %0) #9
  %4 = icmp eq ptr %3, null
  br i1 %4, label %check_retval.exit, label %7

check_retval.exit:                                ; preds = %2
  %5 = load ptr, ptr @stderr, align 8, !tbaa !9
  %6 = tail call i32 (ptr, ptr, ...) @fprintf(ptr noundef %5, ptr noundef nonnull @.str.63, ptr noundef nonnull @.str.31) #11
  br label %34

7:                                                ; preds = %2
  %puts = tail call i32 @puts(ptr nonnull dereferenceable(1) @str.7)
  %8 = load double, ptr %3, align 8, !tbaa !14
  %9 = tail call i32 (ptr, ...) @printf(ptr noundef nonnull dereferenceable(1) @.str.7, double noundef %8)
  %10 = getelementptr inbounds nuw i8, ptr %3, i64 8
  %11 = load double, ptr %10, align 8, !tbaa !14
  %12 = tail call i32 (ptr, ...) @printf(ptr noundef nonnull dereferenceable(1) @.str.8, double noundef %11)
  %13 = getelementptr inbounds nuw i8, ptr %3, i64 16
  %14 = load double, ptr %13, align 8, !tbaa !14
  %15 = tail call i32 (ptr, ...) @printf(ptr noundef nonnull dereferenceable(1) @.str.9, double noundef %14)
  %16 = load double, ptr %3, align 8, !tbaa !14
  %17 = fadd double %16, -5.000000e-01
  %18 = tail call double @llvm.fabs.f64(double %17)
  %19 = load double, ptr %10, align 8, !tbaa !14
  %20 = fadd double %19, -1.000000e+00
  %21 = tail call double @llvm.fabs.f64(double %20)
  %22 = load double, ptr %13, align 8, !tbaa !14
  %23 = fadd double %22, 0x3FE0C152382D7370
  %24 = tail call double @llvm.fabs.f64(double %23)
  %puts19 = tail call i32 @puts(ptr nonnull dereferenceable(1) @str.8)
  %25 = tail call i32 (ptr, ...) @printf(ptr noundef nonnull dereferenceable(1) @.str.40, double noundef %18)
  %26 = tail call i32 (ptr, ...) @printf(ptr noundef nonnull dereferenceable(1) @.str.41, double noundef %21)
  %27 = tail call i32 (ptr, ...) @printf(ptr noundef nonnull dereferenceable(1) @.str.42, double noundef %24)
  %28 = fmul double %1, 1.000000e+01
  %29 = fcmp ogt double %18, %28
  %30 = fcmp ogt double %21, %28
  %or.cond = select i1 %29, i1 true, i1 %30
  %31 = fcmp ogt double %24, %28
  %or.cond22 = select i1 %or.cond, i1 true, i1 %31
  br i1 %or.cond22, label %32, label %33

32:                                               ; preds = %7
  %puts21 = tail call i32 @puts(ptr nonnull dereferenceable(1) @str.10)
  br label %34

33:                                               ; preds = %7
  %puts20 = tail call i32 @puts(ptr nonnull dereferenceable(1) @str.9)
  br label %34

34:                                               ; preds = %check_retval.exit, %33, %32
  %.0 = phi i32 [ 1, %32 ], [ 0, %33 ], [ 1, %check_retval.exit ]
  ret i32 %.0
}